target datalayout = "e-m:e-p270:32:32-p271:32:32-p272:64:64-i64:64-i128:128-f80:128-n8:16:32:64-S128"
target triple = "x86_64-pc-linux-gnu"

%struct.CRYPTO_REF_COUNT = type { i32 }
%struct.crypto_ex_data_st = type { ptr, ptr }
%struct.OSSL_TIME = type { i64 }
%struct.srp_ctx_st = type { ptr, ptr, ptr, ptr, ptr, ptr, ptr, ptr, ptr, ptr, ptr, ptr, ptr, ptr, i32, i64 }
%struct.ssl_ctx_st = type { ptr, ptr, ptr, ptr, ptr, ptr, ptr, i64, ptr, ptr, i32, %struct.OSSL_TIME, ptr, ptr, ptr, %struct.anon.3, %struct.CRYPTO_REF_COUNT, ptr, ptr, ptr, ptr, ptr, ptr, ptr, ptr, ptr, %struct.crypto_ex_data_st, ptr, ptr, ptr, ptr, ptr, ptr, ptr, i64, i32, i32, i32, i64, ptr, ptr, i32, ptr, ptr, i32, i64, [32 x i8], ptr, ptr, ptr, i32, ptr, ptr, ptr, i64, i64, i64, i64, ptr, ptr, ptr, ptr, ptr, %struct.anon.4, ptr, ptr, ptr, ptr, %struct.srp_ctx_st, %struct.dane_ctx_st, ptr, ptr, ptr, ptr, i32, i32, ptr, ptr, i64, i64, ptr, ptr, ptr, i64, ptr, ptr, i32, ptr, ptr, ptr, [14 x i32], [24 x ptr], [14 x ptr], [14 x i64], i64, ptr, ptr, ptr, i64, i64, ptr, i64, i64, i32, i32, i32, i32, ptr, i64, ptr, i64, i64, ptr, ptr }
%struct.anon.3 = type { i32, i32, i32, i32, i32, i32, i32, i32, i32, i32, i32 }
%struct.anon.4 = type { ptr, ptr, [16 x i8], ptr, ptr, ptr, ptr, ptr, i32, i8, i64, ptr, i64, ptr, i64, ptr, i64, ptr, ptr, i64, ptr, ptr, ptr, i64, ptr, ptr, ptr, ptr, [32 x i8] }
%struct.dane_ctx_st = type { ptr, ptr, i8, i64 }

@.str = private unnamed_addr constant [25 x i8] c"../openssl/ssl/ssl_rsa.c\00", align 1
@__func__.SSL_CTX_use_PrivateKey = private unnamed_addr constant [23 x i8] c"SSL_CTX_use_PrivateKey\00", align 1
@__func__.SSL_CTX_use_PrivateKey_ASN1 = private unnamed_addr constant [28 x i8] c"SSL_CTX_use_PrivateKey_ASN1\00", align 1

; Function Attrs: nounwind uwtable
define i32 @SSL_CTX_use_PrivateKey(ptr noundef %0, ptr noundef %1) #0 {
  %3 = alloca i32, align 4
  %4 = alloca ptr, align 8
  %5 = alloca ptr, align 8
  store ptr %0, ptr %4, align 8, !tbaa !76
  store ptr %1, ptr %5, align 8, !tbaa !77
  %6 = load ptr, ptr %5, align 8, !tbaa !77
  %7 = icmp eq ptr %6, null
  br i1 %7, label %8, label %9

8:                                                ; preds = %2
  call void @ERR_new()
  call void @ERR_set_debug(ptr noundef @.str, i32 noundef 383, ptr noundef @__func__.SSL_CTX_use_PrivateKey)
  call void (i32, i32, ptr, ...) @ERR_set_error(i32 noundef 20, i32 noundef 786690, ptr noundef null)
  store i32 0, ptr %3, align 4
  br label %16

9:                                                ; preds = %2
  %10 = load ptr, ptr %4, align 8, !tbaa !76
  %11 = getelementptr inbounds nuw %struct.ssl_ctx_st, ptr %10, i32 0, i32 39
  %12 = load ptr, ptr %11, align 8, !tbaa !107
  %13 = load ptr, ptr %5, align 8, !tbaa !77
  %14 = load ptr, ptr %4, align 8, !tbaa !76
  %15 = call i32 @ssl_set_pkey(ptr noundef %12, ptr noundef %13, ptr noundef %14)
  store i32 %15, ptr %3, align 4
  br label %16

16:                                               ; preds = %9, %8
  %17 = load i32, ptr %3, align 4
  ret i32 %17
}

; Function Attrs: nounwind uwtable
define i32 @SSL_CTX_use_PrivateKey_ASN1(i32 noundef %0, ptr noundef %1, ptr noundef %2, i64 noundef %3) #0 {
  %5 = alloca i32, align 4
  %6 = alloca i32, align 4
  %7 = alloca ptr, align 8
  %8 = alloca ptr, align 8
  %9 = alloca i64, align 8
  %10 = alloca i32, align 4
  %11 = alloca ptr, align 8
  %12 = alloca ptr, align 8
  %13 = alloca i32, align 4
  store i32 %0, ptr %6, align 4, !tbaa !21
  store ptr %1, ptr %7, align 8, !tbaa !76
  store ptr %2, ptr %8, align 8, !tbaa !87
  store i64 %3, ptr %9, align 8, !tbaa !78
  call void @llvm.lifetime.start.p0(i64 4, ptr %10) #6
  call void @llvm.lifetime.start.p0(i64 8, ptr %11) #6
  call void @llvm.lifetime.start.p0(i64 8, ptr %12) #6
  %14 = load ptr, ptr %8, align 8, !tbaa !87
  store ptr %14, ptr %11, align 8, !tbaa !87
  %15 = load i32, ptr %6, align 4, !tbaa !21
  %16 = load i64, ptr %9, align 8, !tbaa !78
  %17 = load ptr, ptr %7, align 8, !tbaa !76
  %18 = getelementptr inbounds nuw %struct.ssl_ctx_st, ptr %17, i32 0, i32 0
  %19 = load ptr, ptr %18, align 8, !tbaa !90
  %20 = load ptr, ptr %7, align 8, !tbaa !76
  %21 = getelementptr inbounds nuw %struct.ssl_ctx_st, ptr %20, i32 0, i32 89
  %22 = load ptr, ptr %21, align 8, !tbaa !104
  %23 = call ptr @d2i_PrivateKey_ex(i32 noundef %15, ptr noundef null, ptr noundef %11, i64 noundef %16, ptr noundef %19, ptr noundef %22)
  store ptr %23, ptr %12, align 8, !tbaa !77
  %24 = icmp eq ptr %23, null
  br i1 %24, label %25, label %26

25:                                               ; preds = %4
  call void @ERR_new()
  call void @ERR_set_debug(ptr noundef @.str, i32 noundef 444, ptr noundef @__func__.SSL_CTX_use_PrivateKey_ASN1)
  call void (i32, i32, ptr, ...) @ERR_set_error(i32 noundef 20, i32 noundef 524301, ptr noundef null)
  store i32 0, ptr %5, align 4
  store i32 1, ptr %13, align 4
  br label %32

26:                                               ; preds = %4
  %27 = load ptr, ptr %7, align 8, !tbaa !76
  %28 = load ptr, ptr %12, align 8, !tbaa !77
  %29 = call i32 @SSL_CTX_use_PrivateKey(ptr noundef %27, ptr noundef %28)
  store i32 %29, ptr %10, align 4, !tbaa !21
  %30 = load ptr, ptr %12, align 8, !tbaa !77
  call void @EVP_PKEY_free(ptr noundef %30)
  %31 = load i32, ptr %10, align 4, !tbaa !21
  store i32 %31, ptr %5, align 4
  store i32 1, ptr %13, align 4
  br label %32

32:                                               ; preds = %26, %25
  call void @llvm.lifetime.end.p0(i64 8, ptr %12) #6
  call void @llvm.lifetime.end.p0(i64 8, ptr %11) #6
  call void @llvm.lifetime.end.p0(i64 4, ptr %10) #6
  %33 = load i32, ptr %5, align 4
  ret i32 %33
}