; Function Attrs: nounwind uwtable
define range(i32 0, 2) i32 @SSL_CTX_use_PrivateKey_ASN1(i32 noundef %0, ptr noundef %1, ptr noundef %2, i64 noundef %3) local_unnamed_addr #0 {
  %5 = alloca ptr, align 8
  call void @llvm.lifetime.start.p0(i64 8, ptr nonnull %5) #6
  store ptr %2, ptr %5, align 8, !tbaa !99
  %6 = load ptr, ptr %1, align 8, !tbaa !82
  %7 = getelementptr inbounds nuw i8, ptr %1, i64 1152
  %8 = load ptr, ptr %7, align 8, !tbaa !96
  %9 = call ptr @d2i_PrivateKey_ex(i32 noundef %0, ptr noundef null, ptr noundef nonnull %5, i64 noundef %3, ptr noundef %6, ptr noundef %8) #6
  %10 = icmp eq ptr %9, null
  br i1 %10, label %11, label %SSL_CTX_use_PrivateKey.exit

11:                                               ; preds = %4
  call void @ERR_new() #6
  call void @ERR_set_debug(ptr noundef nonnull @.str, i32 noundef 444, ptr noundef nonnull @__func__.SSL_CTX_use_PrivateKey_ASN1) #6
  call void (i32, i32, ptr, ...) @ERR_set_error(i32 noundef 20, i32 noundef 524301, ptr noundef null) #6
  br label %15

SSL_CTX_use_PrivateKey.exit:                      ; preds = %4
  %12 = getelementptr inbounds nuw i8, ptr %1, i64 344
  %13 = load ptr, ptr %12, align 8, !tbaa !100
  %14 = call fastcc i32 @ssl_set_pkey(ptr noundef %13, ptr noundef nonnull %9, ptr noundef nonnull %1)
  call void @EVP_PKEY_free(ptr noundef nonnull %9) #6
  br label %15

15:                                               ; preds = %SSL_CTX_use_PrivateKey.exit, %11
  %.0 = phi i32 [ 0, %11 ], [ %14, %SSL_CTX_use_PrivateKey.exit ]
  call void @llvm.lifetime.end.p0(i64 8, ptr nonnull %5) #6
  ret i32 %.0
}